target datalayout = "e-m:e-p270:32:32-p271:32:32-p272:64:64-i64:64-i128:128-f80:128-n8:16:32:64-S128"
target triple = "x86_64-pc-linux-gnu"

%struct.wpacket_st = type { ptr, ptr, i64, i64, i64, ptr, i8 }

@.str = private unnamed_addr constant [52 x i8] c"../openssl/providers/implementations/kdfs/x942kdf.c\00", align 1

; Function Attrs: nounwind uwtable
define internal i32 @x942_encode_otherinfo(i64 noundef %0, ptr noundef %1, i64 noundef %2, ptr noundef %3, i64 noundef %4, ptr noundef %5, i64 noundef %6, ptr noundef %7, i64 noundef %8, ptr noundef %9, i64 noundef %10, ptr noundef %11, i64 noundef %12, ptr noundef %13, ptr noundef %14, ptr noundef %15) #0 {
  %17 = alloca i32, align 4
  %18 = alloca i64, align 8
  %19 = alloca ptr, align 8
  %20 = alloca i64, align 8
  %21 = alloca ptr, align 8
  %22 = alloca i64, align 8
  %23 = alloca ptr, align 8
  %24 = alloca i64, align 8
  %25 = alloca ptr, align 8
  %26 = alloca i64, align 8
  %27 = alloca ptr, align 8
  %28 = alloca i64, align 8
  %29 = alloca ptr, align 8
  %30 = alloca i64, align 8
  %31 = alloca ptr, align 8
  %32 = alloca ptr, align 8
  %33 = alloca ptr, align 8
  %34 = alloca i32, align 4
  %35 = alloca ptr, align 8
  %36 = alloca ptr, align 8
  %37 = alloca i64, align 8
  %38 = alloca %struct.wpacket_st, align 8
  %39 = alloca i32, align 4
  %40 = alloca i32, align 4
  store i64 %0, ptr %18, align 8, !tbaa !32
  store ptr %1, ptr %19, align 8, !tbaa !31
  store i64 %2, ptr %20, align 8, !tbaa !32
  store ptr %3, ptr %21, align 8, !tbaa !31
  store i64 %4, ptr %22, align 8, !tbaa !32
  store ptr %5, ptr %23, align 8, !tbaa !31
  store i64 %6, ptr %24, align 8, !tbaa !32
  store ptr %7, ptr %25, align 8, !tbaa !31
  store i64 %8, ptr %26, align 8, !tbaa !32
  store ptr %9, ptr %27, align 8, !tbaa !31
  store i64 %10, ptr %28, align 8, !tbaa !32
  store ptr %11, ptr %29, align 8, !tbaa !31
  store i64 %12, ptr %30, align 8, !tbaa !32
  store ptr %13, ptr %31, align 8, !tbaa !46
  store ptr %14, ptr %32, align 8, !tbaa !48
  store ptr %15, ptr %33, align 8, !tbaa !46
  call void @llvm.lifetime.start.p0(i64 4, ptr %34) #6
  store i32 0, ptr %34, align 4, !tbaa !35
  call void @llvm.lifetime.start.p0(i64 8, ptr %35) #6
  store ptr null, ptr %35, align 8, !tbaa !31
  call void @llvm.lifetime.start.p0(i64 8, ptr %36) #6
  store ptr null, ptr %36, align 8, !tbaa !31
  call void @llvm.lifetime.start.p0(i64 8, ptr %37) #6
  store i64 0, ptr %37, align 8, !tbaa !32
  call void @llvm.lifetime.start.p0(i64 56, ptr %38) #6
  call void @llvm.lifetime.start.p0(i64 4, ptr %39) #6
  %41 = load i64, ptr %18, align 8, !tbaa !32
  %42 = icmp ugt i64 %41, 16777215
  br i1 %42, label %43, label %44

43:                                               ; preds = %16
  store i32 0, ptr %17, align 4
  store i32 1, ptr %40, align 4
  br label %123

44:                                               ; preds = %16
  %45 = load i64, ptr %18, align 8, !tbaa !32
  %46 = mul i64 8, %45
  %47 = trunc i64 %46 to i32
  store i32 %47, ptr %39, align 4, !tbaa !35
  %48 = load ptr, ptr %19, align 8, !tbaa !31
  %49 = load i64, ptr %20, align 8, !tbaa !32
  %50 = load ptr, ptr %21, align 8, !tbaa !31
  %51 = load i64, ptr %22, align 8, !tbaa !32
  %52 = load ptr, ptr %23, align 8, !tbaa !31
  %53 = load i64, ptr %24, align 8, !tbaa !32
  %54 = load ptr, ptr %25, align 8, !tbaa !31
  %55 = load i64, ptr %26, align 8, !tbaa !32
  %56 = load ptr, ptr %27, align 8, !tbaa !31
  %57 = load i64, ptr %28, align 8, !tbaa !32
  %58 = load ptr, ptr %29, align 8, !tbaa !31
  %59 = load i64, ptr %30, align 8, !tbaa !32
  %60 = load i32, ptr %39, align 4, !tbaa !35
  %61 = call i32 @der_encode_sharedinfo(ptr noundef %38, ptr noundef null, i64 noundef 0, ptr noundef %48, i64 noundef %49, ptr noundef %50, i64 noundef %51, ptr noundef %52, i64 noundef %53, ptr noundef %54, i64 noundef %55, ptr noundef %56, i64 noundef %57, ptr noundef %58, i64 noundef %59, i32 noundef %60, ptr noundef null)
  %62 = icmp ne i32 %61, 0
  br i1 %62, label %63, label %66

63:                                               ; preds = %44
  %64 = call i32 @WPACKET_get_total_written(ptr noundef %38, ptr noundef %37)
  %65 = icmp ne i32 %64, 0
  br i1 %65, label %67, label %66

66:                                               ; preds = %63, %44
  br label %121

67:                                               ; preds = %63
  call void @WPACKET_cleanup(ptr noundef %38)
  %68 = load i64, ptr %37, align 8, !tbaa !32
  %69 = call noalias ptr @CRYPTO_zalloc(i64 noundef %68, ptr noundef @.str, i32 noundef 232)
  store ptr %69, ptr %36, align 8, !tbaa !31
  %70 = load ptr, ptr %36, align 8, !tbaa !31
  %71 = icmp eq ptr %70, null
  br i1 %71, label %72, label %73

72:                                               ; preds = %67
  br label %121

73:                                               ; preds = %67
  %74 = load ptr, ptr %36, align 8, !tbaa !31
  %75 = load i64, ptr %37, align 8, !tbaa !32
  %76 = load ptr, ptr %19, align 8, !tbaa !31
  %77 = load i64, ptr %20, align 8, !tbaa !32
  %78 = load ptr, ptr %21, align 8, !tbaa !31
  %79 = load i64, ptr %22, align 8, !tbaa !32
  %80 = load ptr, ptr %23, align 8, !tbaa !31
  %81 = load i64, ptr %24, align 8, !tbaa !32
  %82 = load ptr, ptr %25, align 8, !tbaa !31
  %83 = load i64, ptr %26, align 8, !tbaa !32
  %84 = load ptr, ptr %27, align 8, !tbaa !31
  %85 = load i64, ptr %28, align 8, !tbaa !32
  %86 = load ptr, ptr %29, align 8, !tbaa !31
  %87 = load i64, ptr %30, align 8, !tbaa !32
  %88 = load i32, ptr %39, align 4, !tbaa !35
  %89 = call i32 @der_encode_sharedinfo(ptr noundef %38, ptr noundef %74, i64 noundef %75, ptr noundef %76, i64 noundef %77, ptr noundef %78, i64 noundef %79, ptr noundef %80, i64 noundef %81, ptr noundef %82, i64 noundef %83, ptr noundef %84, i64 noundef %85, ptr noundef %86, i64 noundef %87, i32 noundef %88, ptr noundef %35)
  %90 = icmp ne i32 %89, 0
  br i1 %90, label %92, label %91

91:                                               ; preds = %73
  br label %121

92:                                               ; preds = %73
  %93 = call ptr @WPACKET_get_curr(ptr noundef %38)
  %94 = load ptr, ptr %36, align 8, !tbaa !31
  %95 = icmp ne ptr %93, %94
  br i1 %95, label %96, label %97

96:                                               ; preds = %92
  br label %121

97:                                               ; preds = %92
  %98 = load ptr, ptr %35, align 8, !tbaa !31
  %99 = icmp eq ptr %98, null
  br i1 %99, label %112, label %100

100:                                              ; preds = %97
  %101 = load ptr, ptr %35, align 8, !tbaa !31
  %102 = getelementptr inbounds i8, ptr %101, i64 0
  %103 = load i8, ptr %102, align 1, !tbaa !50
  %104 = zext i8 %103 to i32
  %105 = icmp ne i32 %104, 4
  br i1 %105, label %112, label %106

106:                                              ; preds = %100
  %107 = load ptr, ptr %35, align 8, !tbaa !31
  %108 = getelementptr inbounds i8, ptr %107, i64 1
  %109 = load i8, ptr %108, align 1, !tbaa !50
  %110 = zext i8 %109 to i32
  %111 = icmp ne i32 %110, 4
  br i1 %111, label %112, label %113

112:                                              ; preds = %106, %100, %97
  br label %121

113:                                              ; preds = %106
  %114 = load ptr, ptr %35, align 8, !tbaa !31
  %115 = getelementptr inbounds i8, ptr %114, i64 2
  %116 = load ptr, ptr %33, align 8, !tbaa !46
  store ptr %115, ptr %116, align 8, !tbaa !31
  %117 = load ptr, ptr %36, align 8, !tbaa !31
  %118 = load ptr, ptr %31, align 8, !tbaa !46
  store ptr %117, ptr %118, align 8, !tbaa !31
  %119 = load i64, ptr %37, align 8, !tbaa !32
  %120 = load ptr, ptr %32, align 8, !tbaa !48
  store i64 %119, ptr %120, align 8, !tbaa !32
  store i32 1, ptr %34, align 4, !tbaa !35
  br label %121

121:                                              ; preds = %113, %112, %96, %91, %72, %66
  call void @WPACKET_cleanup(ptr noundef %38)
  %122 = load i32, ptr %34, align 4, !tbaa !35
  store i32 %122, ptr %17, align 4
  store i32 1, ptr %40, align 4
  br label %123

123:                                              ; preds = %121, %43
  call void @llvm.lifetime.end.p0(i64 4, ptr %39) #6
  call void @llvm.lifetime.end.p0(i64 56, ptr %38) #6
  call void @llvm.lifetime.end.p0(i64 8, ptr %37) #6
  call void @llvm.lifetime.end.p0(i64 8, ptr %36) #6
  call void @llvm.lifetime.end.p0(i64 8, ptr %35) #6
  call void @llvm.lifetime.end.p0(i64 4, ptr %34) #6
  %124 = load i32, ptr %17, align 4
  ret i32 %124
}