; Function Attrs: nounwind uwtable
define internal fastcc range(i32 0, 2) i32 @x942_encode_otherinfo(i64 noundef %0, ptr noundef %1, i64 noundef %2, ptr noundef %3, i64 noundef %4, ptr noundef %5, i64 noundef %6, ptr noundef %7, i64 noundef %8, ptr noundef %9, i64 noundef %10, ptr noundef %11, i64 noundef %12, ptr noundef nonnull writeonly captures(none) %13, ptr noundef nonnull writeonly captures(none) %14, ptr noundef nonnull writeonly captures(none) %15) unnamed_addr #0 {
  %17 = alloca ptr, align 8
  %18 = alloca i64, align 8
  %19 = alloca %struct.wpacket_st, align 8
  call void @llvm.lifetime.start.p0(i64 8, ptr nonnull %17) #7
  store ptr null, ptr %17, align 8, !tbaa !30
  call void @llvm.lifetime.start.p0(i64 8, ptr nonnull %18) #7
  store i64 0, ptr %18, align 8, !tbaa !31
  call void @llvm.lifetime.start.p0(i64 56, ptr nonnull %19) #7
  %20 = icmp ugt i64 %0, 16777215
  br i1 %20, label %47, label %21

21:                                               ; preds = %16
  %.tr = trunc nuw i64 %0 to i32
  %22 = shl nuw nsw i32 %.tr, 3
  %23 = call fastcc i32 @der_encode_sharedinfo(ptr noundef %19, ptr noundef null, i64 noundef 0, ptr noundef %1, i64 noundef %2, ptr noundef %3, i64 noundef %4, ptr noundef %5, i64 noundef %6, ptr noundef %7, i64 noundef %8, ptr noundef %9, i64 noundef %10, ptr noundef %11, i64 noundef %12, i32 noundef %22, ptr noundef null)
  %.not = icmp eq i32 %23, 0
  br i1 %.not, label %46, label %24

24:                                               ; preds = %21
  %25 = call i32 @WPACKET_get_total_written(ptr noundef nonnull %19, ptr noundef nonnull %18) #7
  %.not41 = icmp eq i32 %25, 0
  br i1 %.not41, label %46, label %26

26:                                               ; preds = %24
  call void @WPACKET_cleanup(ptr noundef nonnull %19) #7
  %27 = load i64, ptr %18, align 8, !tbaa !31
  %28 = call noalias ptr @CRYPTO_zalloc(i64 noundef %27, ptr noundef nonnull @.str, i32 noundef 232) #7
  %29 = icmp eq ptr %28, null
  br i1 %29, label %46, label %30

30:                                               ; preds = %26
  %31 = load i64, ptr %18, align 8, !tbaa !31
  %32 = call fastcc i32 @der_encode_sharedinfo(ptr noundef %19, ptr noundef nonnull %28, i64 noundef %31, ptr noundef %1, i64 noundef %2, ptr noundef %3, i64 noundef %4, ptr noundef %5, i64 noundef %6, ptr noundef %7, i64 noundef %8, ptr noundef %9, i64 noundef %10, ptr noundef %11, i64 noundef %12, i32 noundef %22, ptr noundef nonnull %17)
  %.not42 = icmp eq i32 %32, 0
  br i1 %.not42, label %46, label %33

33:                                               ; preds = %30
  %34 = call ptr @WPACKET_get_curr(ptr noundef nonnull %19) #7
  %35 = icmp ne ptr %34, %28
  %36 = load ptr, ptr %17, align 8
  %37 = icmp eq ptr %36, null
  %or.cond = select i1 %35, i1 true, i1 %37
  br i1 %or.cond, label %46, label %38

38:                                               ; preds = %33
  %39 = load i8, ptr %36, align 1, !tbaa !41
  %.not43 = icmp eq i8 %39, 4
  br i1 %.not43, label %40, label %46

40:                                               ; preds = %38
  %41 = getelementptr inbounds nuw i8, ptr %36, i64 1
  %42 = load i8, ptr %41, align 1, !tbaa !41
  %.not44 = icmp eq i8 %42, 4
  br i1 %.not44, label %43, label %46

43:                                               ; preds = %40
  %44 = getelementptr inbounds nuw i8, ptr %36, i64 2
  store ptr %44, ptr %15, align 8, !tbaa !30
  store ptr %28, ptr %13, align 8, !tbaa !30
  %45 = load i64, ptr %18, align 8, !tbaa !31
  store i64 %45, ptr %14, align 8, !tbaa !31
  br label %46

46:                                               ; preds = %38, %40, %33, %30, %26, %21, %24, %43
  %.037 = phi i32 [ 0, %26 ], [ 0, %33 ], [ 0, %38 ], [ 0, %40 ], [ 1, %43 ], [ 0, %30 ], [ 0, %24 ], [ 0, %21 ]
  call void @WPACKET_cleanup(ptr noundef nonnull %19) #7
  br label %47

47:                                               ; preds = %16, %46
  %.0 = phi i32 [ %.037, %46 ], [ 0, %16 ]
  call void @llvm.lifetime.end.p0(i64 56, ptr nonnull %19) #7
  call void @llvm.lifetime.end.p0(i64 8, ptr nonnull %18) #7
  call void @llvm.lifetime.end.p0(i64 8, ptr nonnull %17) #7
  ret i32 %.0
}